; ModuleID = '57/1502.c'
source_filename = "57/1502.c"
target datalayout = "e-m:e-p270:32:32-p271:32:32-p272:64:64-i64:64-f80:128-n8:16:32:64-S128"
target triple = "x86_64-pc-linux-gnu"

@.str = private unnamed_addr constant [3 x i8] c"%d\00", align 1
@.str.1 = private unnamed_addr constant [3 x i8] c"%s\00", align 1
@.str.2 = private unnamed_addr constant [4 x i8] c"%s\0A\00", align 1

; Function Attrs: noinline nounwind uwtable
define dso_local i32 @main() #0 {
  %1 = alloca i32, align 4
  %2 = alloca i32, align 4
  %3 = alloca i32, align 4
  %4 = alloca i32, align 4
  %5 = alloca [50 x [20 x i8]], align 16
  store i32 0, i32* %1, align 4
  %6 = call i32 (i8*, ...) @__isoc99_scanf(i8* getelementptr inbounds ([3 x i8], [3 x i8]* @.str, i64 0, i64 0), i32* %2)
  store i32 0, i32* %3, align 4
  br label %7

7:                                                ; preds = %169, %0
  %8 = load i32, i32* %3, align 4
  %9 = load i32, i32* %2, align 4
  %10 = icmp slt i32 %8, %9
  br i1 %10, label %11, label %172

11:                                               ; preds = %7
  %12 = load i32, i32* %3, align 4
  %13 = sext i32 %12 to i64
  %14 = getelementptr inbounds [50 x [20 x i8]], [50 x [20 x i8]]* %5, i64 0, i64 %13
  %15 = getelementptr inbounds [20 x i8], [20 x i8]* %14, i64 0, i64 0
  %16 = call i32 (i8*, ...) @__isoc99_scanf(i8* getelementptr inbounds ([3 x i8], [3 x i8]* @.str.1, i64 0, i64 0), i8* %15)
  %17 = load i32, i32* %3, align 4
  %18 = sext i32 %17 to i64
  %19 = getelementptr inbounds [50 x [20 x i8]], [50 x [20 x i8]]* %5, i64 0, i64 %18
  %20 = getelementptr inbounds [20 x i8], [20 x i8]* %19, i64 0, i64 0
  %21 = call i64 @strlen(i8* %20) #3
  %22 = trunc i64 %21 to i32
  store i32 %22, i32* %4, align 4
  %23 = load i32, i32* %3, align 4
  %24 = sext i32 %23 to i64
  %25 = getelementptr inbounds [50 x [20 x i8]], [50 x [20 x i8]]* %5, i64 0, i64 %24
  %26 = load i32, i32* %4, align 4
  %27 = sub nsw i32 %26, 1
  %28 = sext i32 %27 to i64
  %29 = getelementptr inbounds [20 x i8], [20 x i8]* %25, i64 0, i64 %28
  %30 = load i8, i8* %29, align 1
  %31 = sext i8 %30 to i32
  %32 = icmp eq i32 %31, 114
  br i1 %32, label %33, label %64

33:                                               ; preds = %11
  %34 = load i32, i32* %3, align 4
  %35 = sext i32 %34 to i64
  %36 = getelementptr inbounds [50 x [20 x i8]], [50 x [20 x i8]]* %5, i64 0, i64 %35
  %37 = load i32, i32* %4, align 4
  %38 = sub nsw i32 %37, 2
  %39 = sext i32 %38 to i64
  %40 = getelementptr inbounds [20 x i8], [20 x i8]* %36, i64 0, i64 %39
  %41 = load i8, i8* %40, align 1
  %42 = sext i8 %41 to i32
  %43 = icmp eq i32 %42, 101
  br i1 %43, label %44, label %64

44:                                               ; preds = %33
  %45 = load i32, i32* %3, align 4
  %46 = sext i32 %45 to i64
  %47 = getelementptr inbounds [50 x [20 x i8]], [50 x [20 x i8]]* %5, i64 0, i64 %46
  %48 = load i32, i32* %4, align 4
  %49 = sub nsw i32 %48, 1
  %50 = sext i32 %49 to i64
  %51 = getelementptr inbounds [20 x i8], [20 x i8]* %47, i64 0, i64 %50
  store i8 0, i8* %51, align 1
  %52 = load i32, i32* %3, align 4
  %53 = sext i32 %52 to i64
  %54 = getelementptr inbounds [50 x [20 x i8]], [50 x [20 x i8]]* %5, i64 0, i64 %53
  %55 = load i32, i32* %4, align 4
  %56 = sub nsw i32 %55, 2
  %57 = sext i32 %56 to i64
  %58 = getelementptr inbounds [20 x i8], [20 x i8]* %54, i64 0, i64 %57
  store i8 0, i8* %58, align 1
  %59 = load i32, i32* %3, align 4
  %60 = sext i32 %59 to i64
  %61 = getelementptr inbounds [50 x [20 x i8]], [50 x [20 x i8]]* %5, i64 0, i64 %60
  %62 = getelementptr inbounds [20 x i8], [20 x i8]* %61, i64 0, i64 0
  %63 = call i32 (i8*, ...) @printf(i8* getelementptr inbounds ([4 x i8], [4 x i8]* @.str.2, i64 0, i64 0), i8* %62)
  br label %168

64:                                               ; preds = %33, %11
  %65 = load i32, i32* %3, align 4
  %66 = sext i32 %65 to i64
  %67 = getelementptr inbounds [50 x [20 x i8]], [50 x [20 x i8]]* %5, i64 0, i64 %66
  %68 = load i32, i32* %4, align 4
  %69 = sub nsw i32 %68, 1
  %70 = sext i32 %69 to i64
  %71 = getelementptr inbounds [20 x i8], [20 x i8]* %67, i64 0, i64 %70
  %72 = load i8, i8* %71, align 1
  %73 = sext i8 %72 to i32
  %74 = icmp eq i32 %73, 121
  br i1 %74, label %75, label %106

75:                                               ; preds = %64
  %76 = load i32, i32* %3, align 4
  %77 = sext i32 %76 to i64
  %78 = getelementptr inbounds [50 x [20 x i8]], [50 x [20 x i8]]* %5, i64 0, i64 %77
  %79 = load i32, i32* %4, align 4
  %80 = sub nsw i32 %79, 2
  %81 = sext i32 %80 to i64
  %82 = getelementptr inbounds [20 x i8], [20 x i8]* %78, i64 0, i64 %81
  %83 = load i8, i8* %82, align 1
  %84 = sext i8 %83 to i32
  %85 = icmp eq i32 %84, 108
  br i1 %85, label %86, label %106

86:                                               ; preds = %75
  %87 = load i32, i32* %3, align 4
  %88 = sext i32 %87 to i64
  %89 = getelementptr inbounds [50 x [20 x i8]], [50 x [20 x i8]]* %5, i64 0, i64 %88
  %90 = load i32, i32* %4, align 4
  %91 = sub nsw i32 %90, 1
  %92 = sext i32 %91 to i64
  %93 = getelementptr inbounds [20 x i8], [20 x i8]* %89, i64 0, i64 %92
  store i8 0, i8* %93, align 1
  %94 = load i32, i32* %3, align 4
  %95 = sext i32 %94 to i64
  %96 = getelementptr inbounds [50 x [20 x i8]], [50 x [20 x i8]]* %5, i64 0, i64 %95
  %97 = load i32, i32* %4, align 4
  %98 = sub nsw i32 %97, 2
  %99 = sext i32 %98 to i64
  %100 = getelementptr inbounds [20 x i8], [20 x i8]* %96, i64 0, i64 %99
  store i8 0, i8* %100, align 1
  %101 = load i32, i32* %3, align 4
  %102 = sext i32 %101 to i64
  %103 = getelementptr inbounds [50 x [20 x i8]], [50 x [20 x i8]]* %5, i64 0, i64 %102
  %104 = getelementptr inbounds [20 x i8], [20 x i8]* %103, i64 0, i64 0
  %105 = call i32 (i8*, ...) @printf(i8* getelementptr inbounds ([4 x i8], [4 x i8]* @.str.2, i64 0, i64 0), i8* %104)
  br label %167

106:                                              ; preds = %75, %64
  %107 = load i32, i32* %3, align 4
  %108 = sext i32 %107 to i64
  %109 = getelementptr inbounds [50 x [20 x i8]], [50 x [20 x i8]]* %5, i64 0, i64 %108
  %110 = load i32, i32* %4, align 4
  %111 = sub nsw i32 %110, 1
  %112 = sext i32 %111 to i64
  %113 = getelementptr inbounds [20 x i8], [20 x i8]* %109, i64 0, i64 %112
  %114 = load i8, i8* %113, align 1
  %115 = sext i8 %114 to i32
  %116 = icmp eq i32 %115, 103
  br i1 %116, label %117, label %166

117:                                              ; preds = %106
  %118 = load i32, i32* %3, align 4
  %119 = sext i32 %118 to i64
  %120 = getelementptr inbounds [50 x [20 x i8]], [50 x [20 x i8]]* %5, i64 0, i64 %119
  %121 = load i32, i32* %4, align 4
  %122 = sub nsw i32 %121, 2
  %123 = sext i32 %122 to i64
  %124 = getelementptr inbounds [20 x i8], [20 x i8]* %120, i64 0, i64 %123
  %125 = load i8, i8* %124, align 1
  %126 = sext i8 %125 to i32
  %127 = icmp eq i32 %126, 110
  br i1 %127, label %128, label %166

128:                                              ; preds = %117
  %129 = load i32, i32* %3, align 4
  %130 = sext i32 %129 to i64
  %131 = getelementptr inbounds [50 x [20 x i8]], [50 x [20 x i8]]* %5, i64 0, i64 %130
  %132 = load i32, i32* %4, align 4
  %133 = sub nsw i32 %132, 3
  %134 = sext i32 %133 to i64
  %135 = getelementptr inbounds [20 x i8], [20 x i8]* %131, i64 0, i64 %134
  %136 = load i8, i8* %135, align 1
  %137 = sext i8 %136 to i32
  %138 = icmp eq i32 %137, 105
  br i1 %138, label %139, label %166

139:                                              ; preds = %128
  %140 = load i32, i32* %3, align 4
  %141 = sext i32 %140 to i64
  %142 = getelementptr inbounds [50 x [20 x i8]], [50 x [20 x i8]]* %5, i64 0, i64 %141
  %143 = load i32, i32* %4, align 4
  %144 = sub nsw i32 %143, 1
  %145 = sext i32 %144 to i64
  %146 = getelementptr inbounds [20 x i8], [20 x i8]* %142, i64 0, i64 %145
  store i8 0, i8* %146, align 1
  %147 = load i32, i32* %3, align 4
  %148 = sext i32 %147 to i64
  %149 = getelementptr inbounds [50 x [20 x i8]], [50 x [20 x i8]]* %5, i64 0, i64 %148
  %150 = load i32, i32* %4, align 4
  %151 = sub nsw i32 %150, 2
  %152 = sext i32 %151 to i64
  %153 = getelementptr inbounds [20 x i8], [20 x i8]* %149, i64 0, i64 %152
  store i8 0, i8* %153, align 1
  %154 = load i32, i32* %3, align 4
  %155 = sext i32 %154 to i64
  %156 = getelementptr inbounds [50 x [20 x i8]], [50 x [20 x i8]]* %5, i64 0, i64 %155
  %157 = load i32, i32* %4, align 4
  %158 = sub nsw i32 %157, 3
  %159 = sext i32 %158 to i64
  %160 = getelementptr inbounds [20 x i8], [20 x i8]* %156, i64 0, i64 %159
  store i8 0, i8* %160, align 1
  %161 = load i32, i32* %3, align 4
  %162 = sext i32 %161 to i64
  %163 = getelementptr inbounds [50 x [20 x i8]], [50 x [20 x i8]]* %5, i64 0, i64 %162
  %164 = getelementptr inbounds [20 x i8], [20 x i8]* %163, i64 0, i64 0
  %165 = call i32 (i8*, ...) @printf(i8* getelementptr inbounds ([4 x i8], [4 x i8]* @.str.2, i64 0, i64 0), i8* %164)
  br label %166

166:                                              ; preds = %139, %128, %117, %106
  br label %167

167:                                              ; preds = %166, %86
  br label %168

168:                                              ; preds = %167, %44
  br label %169

169:                                              ; preds = %168
  %170 = load i32, i32* %3, align 4
  %171 = add nsw i32 %170, 1
  store i32 %171, i32* %3, align 4
  br label %7

172:                                              ; preds = %7
  ret i32 0
}

declare dso_local i32 @__isoc99_scanf(i8*, ...) #1

; Function Attrs: nounwind readonly
declare dso_local i64 @strlen(i8*) #2

declare dso_local i32 @printf(i8*, ...) #1


!llvm.module.flags = !{!0}
!llvm.ident = !{!1}

!0 = !{i32 1, !"wchar_size", i32 4}
!1 = !{!"clang version 10.0.0-4ubuntu1 "}
